target datalayout = "e-m:e-p270:32:32-p271:32:32-p272:64:64-i64:64-i128:128-f80:128-n8:16:32:64-S128"
target triple = "x86_64-pc-linux-gnu"

@SlotInvalidationCauses = dso_local constant [4 x ptr] [ptr @.str, ptr @.str.1, ptr @.str.2, ptr @.str.3], align 16

; Function Attrs: nounwind uwtable
define dso_local i32 @GetSlotInvalidationCause(ptr noundef %0) #0 {
  %2 = alloca ptr, align 8
  %3 = alloca i32, align 4
  %4 = alloca i32, align 4
  %5 = alloca i8, align 1
  store ptr %0, ptr %2, align 8
  call void @llvm.lifetime.start.p0(i64 4, ptr %3) #12
  call void @llvm.lifetime.start.p0(i64 4, ptr %4) #12
  store i32 0, ptr %4, align 4
  call void @llvm.lifetime.start.p0(i64 1, ptr %5) #12
  store i8 0, ptr %5, align 1
  store i32 0, ptr %3, align 4
  br label %6

6:                                                ; preds = %20, %1
  %7 = load i32, ptr %3, align 4
  %8 = icmp ule i32 %7, 3
  br i1 %8, label %9, label %23

9:                                                ; preds = %6
  %10 = load i32, ptr %3, align 4
  %11 = zext i32 %10 to i64
  %12 = getelementptr inbounds nuw [4 x ptr], ptr @SlotInvalidationCauses, i64 0, i64 %11
  %13 = load ptr, ptr %12, align 8
  %14 = load ptr, ptr %2, align 8
  %15 = call i32 @strcmp(ptr noundef %13, ptr noundef %14) #13
  %16 = icmp eq i32 %15, 0
  br i1 %16, label %17, label %19

17:                                               ; preds = %9
  store i8 1, ptr %5, align 1
  %18 = load i32, ptr %3, align 4
  store i32 %18, ptr %4, align 4
  br label %23

19:                                               ; preds = %9
  br label %20

20:                                               ; preds = %19
  %21 = load i32, ptr %3, align 4
  %22 = add i32 %21, 1
  store i32 %22, ptr %3, align 4
  br label %6, !llvm.loop !48

23:                                               ; preds = %17, %6
  %24 = load i32, ptr %4, align 4
  call void @llvm.lifetime.end.p0(i64 1, ptr %5) #12
  call void @llvm.lifetime.end.p0(i64 4, ptr %4) #12
  call void @llvm.lifetime.end.p0(i64 4, ptr %3) #12
  ret i32 %24
}